	.file	"main1.c"
	.text
	.def	printf;	.scl	3;	.type	32;	.endef
	.seh_proc	printf
printf:
	pushq	%rbp
	.seh_pushreg	%rbp
	pushq	%rbx
	.seh_pushreg	%rbx
	subq	$56, %rsp
	.seh_stackalloc	56
	leaq	48(%rsp), %rbp
	.seh_setframe	%rbp, 48
	.seh_endprologue
	movq	%rcx, 32(%rbp)
	movq	%rdx, 40(%rbp)
	movq	%r8, 48(%rbp)
	movq	%r9, 56(%rbp)
	leaq	40(%rbp), %rax
	movq	%rax, -16(%rbp)
	movq	-16(%rbp), %rbx
	movl	$1, %ecx
	movq	__imp___acrt_iob_func(%rip), %rax
	call	*%rax
	movq	%rbx, %r8
	movq	32(%rbp), %rdx
	movq	%rax, %rcx
	call	__mingw_vfprintf
	movl	%eax, -4(%rbp)
	movl	-4(%rbp), %eax
	addq	$56, %rsp
	popq	%rbx
	popq	%rbp
	ret
	.seh_endproc
	.globl	i
	.data
	.align 4
i:
	.long	1
	.section .rdata,"dr"
.LC0:
	.ascii "Test\12\0"
	.text
	.globl	test
	.def	test;	.scl	2;	.type	32;	.endef
	.seh_proc	test
test:
	pushq	%rbp
	.seh_pushreg	%rbp
	movq	%rsp, %rbp
	.seh_setframe	%rbp, 0
	subq	$32, %rsp
	.seh_stackalloc	32
	.seh_endprologue
	leaq	.LC0(%rip), %rcx
	call	printf
	nop
	addq	$32, %rsp
	popq	%rbp
	ret
	.seh_endproc
	.section .rdata,"dr"
.LC1:
	.ascii "count i = %d\12\0"
	.text
	.globl	count
	.def	count;	.scl	2;	.type	32;	.endef
	.seh_proc	count
count:
	pushq	%rbp
	.seh_pushreg	%rbp
	movq	%rsp, %rbp
	.seh_setframe	%rbp, 0
	subq	$32, %rsp
	.seh_stackalloc	32
	.seh_endprologue
	movl	i(%rip), %eax
	movl	%eax, %edx
	leaq	.LC1(%rip), %rcx
	call	printf
	movl	i(%rip), %eax
	addl	$1, %eax
	movl	%eax, i(%rip)
	nop
	addq	$32, %rsp
	popq	%rbp
	ret
	.seh_endproc
	.def	__main;	.scl	2;	.type	32;	.endef
	.section .rdata,"dr"
.LC2:
	.ascii "sum 5 and 6:%d\12\0"
	.text
	.globl	main
	.def	main;	.scl	2;	.type	32;	.endef
	.seh_proc	main
main:
	pushq	%rbp
	.seh_pushreg	%rbp
	movq	%rsp, %rbp
	.seh_setframe	%rbp, 0
	subq	$48, %rsp
	.seh_stackalloc	48
	.seh_endprologue
	movl	%ecx, 16(%rbp)
	movq	%rdx, 24(%rbp)
	call	__main
	movl	$13, %edx
	leaq	.LC2(%rip), %rcx
	call	printf
	call	test
	movl	$0, -4(%rbp)
	jmp	.L6
.L7:
	call	count
	addl	$1, -4(%rbp)
.L6:
	cmpl	$4, -4(%rbp)
	jle	.L7
	movl	$0, %eax
	addq	$48, %rsp
	popq	%rbp
	ret
	.seh_endproc
	.ident	"GCC: (tdm64-1) 10.3.0"
	.def	__mingw_vfprintf;	.scl	2;	.type	32;	.endef
